target datalayout = "e-m:e-p270:32:32-p271:32:32-p272:64:64-i64:64-i128:128-f80:128-n8:16:32:64-S128"
target triple = "x86_64-pc-linux-gnu"

%struct.dlist_node = type { ptr, ptr }
%struct.PgStat_EntryRef = type { ptr, ptr, i32, ptr, %struct.dlist_node }

; Function Attrs: nounwind uwtable
define dso_local ptr @pgstat_fetch_pending_entry(i32 noundef %0, i32 noundef %1, i64 noundef %2) #0 {
  %4 = alloca ptr, align 8
  %5 = alloca i32, align 4
  %6 = alloca i32, align 4
  %7 = alloca i64, align 8
  %8 = alloca ptr, align 8
  %9 = alloca i32, align 4
  store i32 %0, ptr %5, align 4
  store i32 %1, ptr %6, align 4
  store i64 %2, ptr %7, align 8
  call void @llvm.lifetime.start.p0(i64 8, ptr %8) #12
  %10 = load i32, ptr %5, align 4
  %11 = load i32, ptr %6, align 4
  %12 = load i64, ptr %7, align 8
  %13 = call ptr @pgstat_get_entry_ref(i32 noundef %10, i32 noundef %11, i64 noundef %12, i1 noundef zeroext false, ptr noundef null)
  store ptr %13, ptr %8, align 8
  %14 = load ptr, ptr %8, align 8
  %15 = icmp eq ptr %14, null
  br i1 %15, label %21, label %16

16:                                               ; preds = %3
  %17 = load ptr, ptr %8, align 8
  %18 = getelementptr inbounds nuw %struct.PgStat_EntryRef, ptr %17, i32 0, i32 3
  %19 = load ptr, ptr %18, align 8
  %20 = icmp eq ptr %19, null
  br i1 %20, label %21, label %22

21:                                               ; preds = %16, %3
  store ptr null, ptr %4, align 8
  store i32 1, ptr %9, align 4
  br label %24

22:                                               ; preds = %16
  %23 = load ptr, ptr %8, align 8
  store ptr %23, ptr %4, align 8
  store i32 1, ptr %9, align 4
  br label %24

24:                                               ; preds = %22, %21
  call void @llvm.lifetime.end.p0(i64 8, ptr %8) #12
  %25 = load ptr, ptr %4, align 8
  ret ptr %25
}