; Function Attrs: nounwind uwtable
define dso_local ptr @pgstat_fetch_pending_entry(i32 noundef %0, i32 noundef %1, i64 noundef %2) local_unnamed_addr #0 {
  %4 = tail call ptr @pgstat_get_entry_ref(i32 noundef %0, i32 noundef %1, i64 noundef %2, i1 noundef zeroext false, ptr noundef null) #17
  %5 = icmp eq ptr %4, null
  br i1 %5, label %10, label %6

6:                                                ; preds = %3
  %7 = getelementptr inbounds nuw i8, ptr %4, i64 24
  %8 = load ptr, ptr %7, align 8
  %9 = icmp eq ptr %8, null
  %spec.select = select i1 %9, ptr null, ptr %4
  br label %10

10:                                               ; preds = %6, %3
  %.0 = phi ptr [ null, %3 ], [ %spec.select, %6 ]
  ret ptr %.0
}